; Function Attrs: mustprogress uwtable
define hidden void @_Z16elim_unused_varsR11ast_managerP10quantifierRK10params_ref(ptr dead_on_unwind noalias writable sret(%class.obj_ref) align 8 initializes((0, 16)) %0, ptr noundef nonnull align 8 dereferenceable(976) %1, ptr noundef %2, ptr noundef nonnull align 8 dereferenceable(8) %3) local_unnamed_addr #3 personality ptr @__gxx_personality_v0 {
  %5 = alloca %class.unused_vars_eliminator, align 8
  call void @llvm.lifetime.start.p0(i64 624, ptr nonnull %5) #19
  call void @_ZN22unused_vars_eliminatorC2ER11ast_managerRK10params_ref(ptr noundef nonnull align 8 dereferenceable(617) %5, ptr noundef nonnull align 8 dereferenceable(976) %1, ptr noundef nonnull align 8 dereferenceable(8) %3)
  invoke void @_ZN22unused_vars_eliminatorclEP10quantifier(ptr dead_on_unwind writable sret(%class.obj_ref) align 8 %0, ptr noundef nonnull align 8 dereferenceable(617) %5, ptr noundef %2)
          to label %8 unwind label %6

6:                                                ; preds = %4
  %7 = landingpad { ptr, i32 }
          cleanup
  call void @_ZN22unused_vars_eliminatorD2Ev(ptr noundef nonnull align 8 dereferenceable(617) %5) #19
  call void @llvm.lifetime.end.p0(i64 624, ptr nonnull %5) #19
  resume { ptr, i32 } %7

8:                                                ; preds = %4
  %9 = getelementptr inbounds nuw i8, ptr %5, i64 608
  call void @_ZN10params_refD1Ev(ptr noundef nonnull align 8 dereferenceable(8) %9) #19
  %10 = getelementptr inbounds nuw i8, ptr %5, i64 560
  %11 = getelementptr inbounds nuw i8, ptr %5, i64 592
  %12 = load ptr, ptr %11, align 8, !tbaa !107
  %.not.i.i.i.i = icmp eq ptr %12, null
  br i1 %.not.i.i.i.i, label %_ZN6vectorI15expr_delta_pairLb0EjED2Ev.exit.i.i, label %13

13:                                               ; preds = %8
  %14 = getelementptr inbounds i8, ptr %12, i64 -8
  invoke void @_ZN6memory10deallocateEPv(ptr noundef nonnull %14)
          to label %_ZN6vectorI15expr_delta_pairLb0EjED2Ev.exit.i.i unwind label %15

15:                                               ; preds = %13
  %16 = landingpad { ptr, i32 }
          catch ptr null
  %17 = extractvalue { ptr, i32 } %16, 0
  call void @__clang_call_terminate(ptr %17) #20
  unreachable

_ZN6vectorI15expr_delta_pairLb0EjED2Ev.exit.i.i:  ; preds = %13, %8
  %18 = getelementptr inbounds nuw i8, ptr %5, i64 568
  %19 = load ptr, ptr %18, align 8, !tbaa !101
  %20 = icmp eq ptr %19, null
  br i1 %20, label %_ZN14core_hashtableI18default_hash_entryI15expr_delta_pairE8obj_hashIS1_E10default_eqIS1_EED2Ev.exit.i.i, label %21

21:                                               ; preds = %_ZN6vectorI15expr_delta_pairLb0EjED2Ev.exit.i.i
  invoke void @_ZN6memory10deallocateEPv(ptr noundef nonnull %19)
          to label %_ZN14core_hashtableI18default_hash_entryI15expr_delta_pairE8obj_hashIS1_E10default_eqIS1_EED2Ev.exit.i.i unwind label %22

22:                                               ; preds = %21
  %23 = landingpad { ptr, i32 }
          catch ptr null
  %24 = extractvalue { ptr, i32 } %23, 0
  call void @__clang_call_terminate(ptr %24) #20
  unreachable

_ZN14core_hashtableI18default_hash_entryI15expr_delta_pairE8obj_hashIS1_E10default_eqIS1_EED2Ev.exit.i.i: ; preds = %21, %_ZN6vectorI15expr_delta_pairLb0EjED2Ev.exit.i.i
  store ptr null, ptr %18, align 8, !tbaa !101
  %25 = load ptr, ptr %10, align 8, !tbaa !97
  %.not.i.i1.i.i = icmp eq ptr %25, null
  br i1 %.not.i.i1.i.i, label %_ZN22unused_vars_eliminatorD2Ev.exit, label %26

26:                                               ; preds = %_ZN14core_hashtableI18default_hash_entryI15expr_delta_pairE8obj_hashIS1_E10default_eqIS1_EED2Ev.exit.i.i
  %27 = getelementptr inbounds i8, ptr %25, i64 -8
  invoke void @_ZN6memory10deallocateEPv(ptr noundef nonnull %27)
          to label %_ZN22unused_vars_eliminatorD2Ev.exit unwind label %28

28:                                               ; preds = %26
  %29 = landingpad { ptr, i32 }
          catch ptr null
  %30 = extractvalue { ptr, i32 } %29, 0
  call void @__clang_call_terminate(ptr %30) #20
  unreachable

_ZN22unused_vars_eliminatorD2Ev.exit:             ; preds = %_ZN14core_hashtableI18default_hash_entryI15expr_delta_pairE8obj_hashIS1_E10default_eqIS1_EED2Ev.exit.i.i, %26
  %31 = getelementptr inbounds nuw i8, ptr %5, i64 8
  call void @_ZN12rewriter_tplI16beta_reducer_cfgED2Ev(ptr noundef nonnull align 8 dereferenceable(545) %31) #19
  call void @llvm.lifetime.end.p0(i64 624, ptr nonnull %5) #19
  ret void
}